target datalayout = "e-m:e-p270:32:32-p271:32:32-p272:64:64-i64:64-i128:128-f80:128-n8:16:32:64-S128"
target triple = "x86_64-pc-linux-gnu"

; Function Attrs: mustprogress nounwind uwtable
define internal noundef zeroext i1 @_ZN14arrow_vendored17double_conversionL7isDigitEii(i32 noundef %0, i32 noundef %1) #3 {
  %3 = alloca i32, align 4
  %4 = alloca i32, align 4
  store i32 %0, ptr %3, align 4, !tbaa !10
  store i32 %1, ptr %4, align 4, !tbaa !10
  %5 = load i32, ptr %3, align 4, !tbaa !10
  %6 = icmp sge i32 %5, 48
  br i1 %6, label %7, label %15

7:                                                ; preds = %2
  %8 = load i32, ptr %3, align 4, !tbaa !10
  %9 = icmp sle i32 %8, 57
  br i1 %9, label %10, label %15

10:                                               ; preds = %7
  %11 = load i32, ptr %3, align 4, !tbaa !10
  %12 = load i32, ptr %4, align 4, !tbaa !10
  %13 = add nsw i32 48, %12
  %14 = icmp slt i32 %11, %13
  br i1 %14, label %41, label %15

15:                                               ; preds = %10, %7, %2
  %16 = load i32, ptr %4, align 4, !tbaa !10
  %17 = icmp sgt i32 %16, 10
  br i1 %17, label %18, label %27

18:                                               ; preds = %15
  %19 = load i32, ptr %3, align 4, !tbaa !10
  %20 = icmp sge i32 %19, 97
  br i1 %20, label %21, label %27

21:                                               ; preds = %18
  %22 = load i32, ptr %3, align 4, !tbaa !10
  %23 = load i32, ptr %4, align 4, !tbaa !10
  %24 = add nsw i32 97, %23
  %25 = sub nsw i32 %24, 10
  %26 = icmp slt i32 %22, %25
  br i1 %26, label %41, label %27

27:                                               ; preds = %21, %18, %15
  %28 = load i32, ptr %4, align 4, !tbaa !10
  %29 = icmp sgt i32 %28, 10
  br i1 %29, label %30, label %39

30:                                               ; preds = %27
  %31 = load i32, ptr %3, align 4, !tbaa !10
  %32 = icmp sge i32 %31, 65
  br i1 %32, label %33, label %39

33:                                               ; preds = %30
  %34 = load i32, ptr %3, align 4, !tbaa !10
  %35 = load i32, ptr %4, align 4, !tbaa !10
  %36 = add nsw i32 65, %35
  %37 = sub nsw i32 %36, 10
  %38 = icmp slt i32 %34, %37
  br label %39

39:                                               ; preds = %33, %30, %27
  %40 = phi i1 [ false, %30 ], [ false, %27 ], [ %38, %33 ]
  br label %41

41:                                               ; preds = %39, %21, %10
  %42 = phi i1 [ true, %21 ], [ true, %10 ], [ %40, %39 ]
  ret i1 %42
}

; Function Attrs: mustprogress nounwind uwtable
define internal noundef zeroext i1 @_ZN14arrow_vendored17double_conversionL7AdvanceIPKtEEbPT_tiRS4_(ptr noundef %0, i16 noundef zeroext %1, i32 noundef %2, ptr noundef nonnull align 8 dereferenceable(8) %3) #3 {
  %5 = alloca i1, align 1
  %6 = alloca ptr, align 8
  %7 = alloca i16, align 2
  %8 = alloca i32, align 4
  %9 = alloca ptr, align 8
  store ptr %0, ptr %6, align 8, !tbaa !94
  store i16 %1, ptr %7, align 2, !tbaa !38
  store i32 %2, ptr %8, align 4, !tbaa !10
  store ptr %3, ptr %9, align 8, !tbaa !94
  %10 = load i16, ptr %7, align 2, !tbaa !38
  %11 = zext i16 %10 to i32
  %12 = icmp eq i32 %11, 0
  br i1 %12, label %13, label %22

13:                                               ; preds = %4
  %14 = load ptr, ptr %6, align 8, !tbaa !94
  %15 = load ptr, ptr %14, align 8, !tbaa !36
  %16 = getelementptr inbounds nuw i16, ptr %15, i32 1
  store ptr %16, ptr %14, align 8, !tbaa !36
  %17 = load ptr, ptr %6, align 8, !tbaa !94
  %18 = load ptr, ptr %17, align 8, !tbaa !36
  %19 = load ptr, ptr %9, align 8, !tbaa !94
  %20 = load ptr, ptr %19, align 8, !tbaa !36
  %21 = icmp eq ptr %18, %20
  store i1 %21, ptr %5, align 1
  br label %82

22:                                               ; preds = %4
  %23 = load ptr, ptr %6, align 8, !tbaa !94
  %24 = load ptr, ptr %23, align 8, !tbaa !36
  %25 = load i16, ptr %24, align 2, !tbaa !38
  %26 = zext i16 %25 to i32
  %27 = load i32, ptr %8, align 4, !tbaa !10
  %28 = call noundef zeroext i1 @_ZN14arrow_vendored17double_conversionL7isDigitEii(i32 noundef %26, i32 noundef %27)
  br i1 %28, label %38, label %29

29:                                               ; preds = %22
  %30 = load ptr, ptr %6, align 8, !tbaa !94
  %31 = load ptr, ptr %30, align 8, !tbaa !36
  %32 = getelementptr inbounds nuw i16, ptr %31, i32 1
  store ptr %32, ptr %30, align 8, !tbaa !36
  %33 = load ptr, ptr %6, align 8, !tbaa !94
  %34 = load ptr, ptr %33, align 8, !tbaa !36
  %35 = load ptr, ptr %9, align 8, !tbaa !94
  %36 = load ptr, ptr %35, align 8, !tbaa !36
  %37 = icmp eq ptr %34, %36
  store i1 %37, ptr %5, align 1
  br label %82

38:                                               ; preds = %22
  %39 = load ptr, ptr %6, align 8, !tbaa !94
  %40 = load ptr, ptr %39, align 8, !tbaa !36
  %41 = getelementptr inbounds nuw i16, ptr %40, i32 1
  store ptr %41, ptr %39, align 8, !tbaa !36
  %42 = load ptr, ptr %6, align 8, !tbaa !94
  %43 = load ptr, ptr %42, align 8, !tbaa !36
  %44 = load ptr, ptr %9, align 8, !tbaa !94
  %45 = load ptr, ptr %44, align 8, !tbaa !36
  %46 = icmp eq ptr %43, %45
  br i1 %46, label %47, label %48

47:                                               ; preds = %38
  store i1 true, ptr %5, align 1
  br label %82

48:                                               ; preds = %38
  %49 = load ptr, ptr %6, align 8, !tbaa !94
  %50 = load ptr, ptr %49, align 8, !tbaa !36
  %51 = getelementptr inbounds i16, ptr %50, i64 1
  %52 = load ptr, ptr %9, align 8, !tbaa !94
  %53 = load ptr, ptr %52, align 8, !tbaa !36
  %54 = icmp eq ptr %51, %53
  br i1 %54, label %55, label %56

55:                                               ; preds = %48
  store i1 false, ptr %5, align 1
  br label %82

56:                                               ; preds = %48
  %57 = load ptr, ptr %6, align 8, !tbaa !94
  %58 = load ptr, ptr %57, align 8, !tbaa !36
  %59 = load i16, ptr %58, align 2, !tbaa !38
  %60 = zext i16 %59 to i32
  %61 = load i16, ptr %7, align 2, !tbaa !38
  %62 = zext i16 %61 to i32
  %63 = icmp eq i32 %60, %62
  br i1 %63, label %64, label %76

64:                                               ; preds = %56
  %65 = load ptr, ptr %6, align 8, !tbaa !94
  %66 = load ptr, ptr %65, align 8, !tbaa !36
  %67 = getelementptr inbounds i16, ptr %66, i64 1
  %68 = load i16, ptr %67, align 2, !tbaa !38
  %69 = zext i16 %68 to i32
  %70 = load i32, ptr %8, align 4, !tbaa !10
  %71 = call noundef zeroext i1 @_ZN14arrow_vendored17double_conversionL7isDigitEii(i32 noundef %69, i32 noundef %70)
  br i1 %71, label %72, label %76

72:                                               ; preds = %64
  %73 = load ptr, ptr %6, align 8, !tbaa !94
  %74 = load ptr, ptr %73, align 8, !tbaa !36
  %75 = getelementptr inbounds nuw i16, ptr %74, i32 1
  store ptr %75, ptr %73, align 8, !tbaa !36
  br label %76

76:                                               ; preds = %72, %64, %56
  %77 = load ptr, ptr %6, align 8, !tbaa !94
  %78 = load ptr, ptr %77, align 8, !tbaa !36
  %79 = load ptr, ptr %9, align 8, !tbaa !94
  %80 = load ptr, ptr %79, align 8, !tbaa !36
  %81 = icmp eq ptr %78, %80
  store i1 %81, ptr %5, align 1
  br label %82

82:                                               ; preds = %76, %55, %47, %29, %13
  %83 = load i1, ptr %5, align 1
  ret i1 %83
}